(lp0
S'poi'
p1
aS'exercised_stock_options'
p2
aS'loan_advances'
p3
aS'total_stock_value'
p4
aS'bonus'
p5
aS'fraction_to_poi'
p6
aS'salary'
p7
aS'total_payments'
p8
aS'long_term_incentive'
p9
aS'shared_receipt_with_poi'
p10
a.